; Function Attrs: mustprogress nofree norecurse nosync nounwind memory(argmem: readwrite) uwtable
define internal void @_ZN2cvL16transposeI_32sC6EPhmi(ptr noundef captures(none) %0, i64 noundef %1, i32 noundef %2) #7 {
  %.sroa.0.i.i = alloca [6 x i32], align 4
  %4 = icmp sgt i32 %2, 0
  br i1 %4, label %.lr.ph20.preheader.i, label %_ZN2cvL11transposeI_INS_3VecIiLi6EEEEEvPhmi.exit

.lr.ph20.preheader.i:                             ; preds = %3
  %5 = zext nneg i32 %2 to i64
  br label %.lr.ph20.i

.loopexit.i:                                      ; preds = %.lr.ph.i, %.lr.ph20.i
  %indvars.iv.next.i = add nuw nsw i64 %indvars.iv.i, 1
  %exitcond28.not.i = icmp eq i64 %indvars.iv.next25.i, %5
  br i1 %exitcond28.not.i, label %_ZN2cvL11transposeI_INS_3VecIiLi6EEEEEvPhmi.exit, label %.lr.ph20.i, !llvm.loop !170

.lr.ph20.i:                                       ; preds = %.loopexit.i, %.lr.ph20.preheader.i
  %indvars.iv24.i = phi i64 [ 0, %.lr.ph20.preheader.i ], [ %indvars.iv.next25.i, %.loopexit.i ]
  %indvars.iv.i = phi i64 [ 1, %.lr.ph20.preheader.i ], [ %indvars.iv.next.i, %.loopexit.i ]
  %6 = mul i64 %indvars.iv24.i, %1
  %7 = getelementptr inbounds nuw i8, ptr %0, i64 %6
  %8 = mul nuw nsw i64 %indvars.iv24.i, 24
  %9 = getelementptr inbounds nuw i8, ptr %0, i64 %8
  %indvars.iv.next25.i = add nuw nsw i64 %indvars.iv24.i, 1
  %10 = icmp samesign ult i64 %indvars.iv.next25.i, %5
  br i1 %10, label %.lr.ph.i, label %.loopexit.i

.lr.ph.i:                                         ; preds = %.lr.ph20.i, %.lr.ph.i
  %indvars.iv21.i = phi i64 [ %indvars.iv.next22.i, %.lr.ph.i ], [ %indvars.iv.i, %.lr.ph20.i ]
  %11 = getelementptr inbounds nuw %"class.cv::Vec.19", ptr %7, i64 %indvars.iv21.i
  %12 = mul i64 %indvars.iv21.i, %1
  %13 = getelementptr inbounds nuw i8, ptr %9, i64 %12
  call void @llvm.lifetime.start.p0(i64 24, ptr nonnull %.sroa.0.i.i)
  call void @llvm.memcpy.p0.p0.i64(ptr noundef nonnull align 4 dereferenceable(24) %.sroa.0.i.i, ptr noundef nonnull align 4 dereferenceable(24) %11, i64 24, i1 false), !tbaa !33
  tail call void @llvm.memcpy.p0.p0.i64(ptr noundef nonnull align 4 dereferenceable(24) %11, ptr noundef nonnull align 4 dereferenceable(24) %13, i64 24, i1 false)
  call void @llvm.memcpy.p0.p0.i64(ptr noundef nonnull align 4 dereferenceable(24) %13, ptr noundef nonnull align 4 dereferenceable(24) %.sroa.0.i.i, i64 24, i1 false)
  call void @llvm.lifetime.end.p0(i64 24, ptr nonnull %.sroa.0.i.i)
  %indvars.iv.next22.i = add nuw nsw i64 %indvars.iv21.i, 1
  %exitcond.not.i = icmp eq i64 %indvars.iv.next22.i, %5
  br i1 %exitcond.not.i, label %.loopexit.i, label %.lr.ph.i, !llvm.loop !171

_ZN2cvL11transposeI_INS_3VecIiLi6EEEEEvPhmi.exit: ; preds = %.loopexit.i, %3
  ret void
}